; Function Attrs: nounwind uwtable
define nonnull ptr @l_Nat_anyTR_loop___at___private_Lean_Compiler_IR_RC_0__Lean_IR_ExplicitRC_isBorrowParamAux___spec__1___boxed(ptr noundef %0, ptr noundef %1, ptr noundef %2, ptr noundef %3, ptr noundef %4, ptr noundef readnone captures(none) %5) local_unnamed_addr #0 {
  %7 = tail call zeroext i8 @l_Nat_anyTR_loop___at___private_Lean_Compiler_IR_RC_0__Lean_IR_ExplicitRC_isBorrowParamAux___spec__1(ptr noundef %0, ptr noundef %1, ptr noundef %2, ptr noundef %3, ptr noundef %4, ptr poison)
  %8 = ptrtoint ptr %3 to i64
  %9 = and i64 %8, 1
  %.not = icmp eq i64 %9, 0
  br i1 %.not, label %10, label %lean_dec.exit11

10:                                               ; preds = %6
  %11 = load i32, ptr %3, align 4, !tbaa !8
  %12 = icmp sgt i32 %11, 1
  br i1 %12, label %13, label %15, !prof !11

13:                                               ; preds = %10
  %14 = add nsw i32 %11, -1
  store i32 %14, ptr %3, align 4, !tbaa !8
  br label %lean_dec.exit11

15:                                               ; preds = %10
  %.not.i = icmp eq i32 %11, 0
  br i1 %.not.i, label %lean_dec.exit11, label %16

16:                                               ; preds = %15
  tail call void @lean_dec_ref_cold(ptr noundef nonnull %3) #6
  br label %lean_dec.exit11

lean_dec.exit11:                                  ; preds = %16, %15, %13, %6
  %17 = ptrtoint ptr %1 to i64
  %18 = and i64 %17, 1
  %.not16 = icmp eq i64 %18, 0
  br i1 %.not16, label %19, label %lean_dec.exit10

19:                                               ; preds = %lean_dec.exit11
  %20 = load i32, ptr %1, align 4, !tbaa !8
  %21 = icmp sgt i32 %20, 1
  br i1 %21, label %22, label %24, !prof !11

22:                                               ; preds = %19
  %23 = add nsw i32 %20, -1
  store i32 %23, ptr %1, align 4, !tbaa !8
  br label %lean_dec.exit10

24:                                               ; preds = %19
  %.not.i12 = icmp eq i32 %20, 0
  br i1 %.not.i12, label %lean_dec.exit10, label %25

25:                                               ; preds = %24
  tail call void @lean_dec_ref_cold(ptr noundef nonnull %1) #6
  br label %lean_dec.exit10

lean_dec.exit10:                                  ; preds = %25, %24, %22, %lean_dec.exit11
  %26 = ptrtoint ptr %0 to i64
  %27 = and i64 %26, 1
  %.not17 = icmp eq i64 %27, 0
  br i1 %.not17, label %28, label %lean_dec.exit

28:                                               ; preds = %lean_dec.exit10
  %29 = load i32, ptr %0, align 4, !tbaa !8
  %30 = icmp sgt i32 %29, 1
  br i1 %30, label %31, label %33, !prof !11

31:                                               ; preds = %28
  %32 = add nsw i32 %29, -1
  store i32 %32, ptr %0, align 4, !tbaa !8
  br label %lean_dec.exit

33:                                               ; preds = %28
  %.not.i14 = icmp eq i32 %29, 0
  br i1 %.not.i14, label %lean_dec.exit, label %34

34:                                               ; preds = %33
  tail call void @lean_dec_ref_cold(ptr noundef nonnull %0) #6
  br label %lean_dec.exit

lean_dec.exit:                                    ; preds = %34, %33, %31, %lean_dec.exit10
  %35 = shl nuw nsw i8 %7, 1
  %36 = or disjoint i8 %35, 1
  %37 = zext nneg i8 %36 to i64
  %38 = inttoptr i64 %37 to ptr
  ret ptr %38
}